; Function Attrs: nofree norecurse nosync nounwind memory(argmem: readwrite) uwtable
define i64 @png_safecat(ptr noundef writeonly captures(address_is_null) %0, i64 noundef %1, i64 noundef %2, ptr noundef readonly captures(address_is_null) %3) local_unnamed_addr #2 {
  %.not = icmp ne ptr %0, null
  %5 = icmp ult i64 %2, %1
  %or.cond = and i1 %.not, %5
  br i1 %or.cond, label %6, label %21

6:                                                ; preds = %4
  %.not18 = icmp eq ptr %3, null
  br i1 %.not18, label %.loopexit, label %.preheader

.preheader:                                       ; preds = %6
  %7 = add i64 %1, -1
  %8 = load i8, ptr %3, align 1, !tbaa !24
  %9 = icmp ne i8 %8, 0
  %10 = icmp ult i64 %2, %7
  %11 = and i1 %9, %10
  br i1 %11, label %.lr.ph, label %.loopexit

.lr.ph:                                           ; preds = %.preheader, %.lr.ph
  %12 = phi i8 [ %16, %.lr.ph ], [ %8, %.preheader ]
  %.020 = phi ptr [ %13, %.lr.ph ], [ %3, %.preheader ]
  %.219 = phi i64 [ %14, %.lr.ph ], [ %2, %.preheader ]
  %13 = getelementptr inbounds nuw i8, ptr %.020, i64 1
  %14 = add nuw i64 %.219, 1
  %15 = getelementptr inbounds nuw i8, ptr %0, i64 %.219
  store i8 %12, ptr %15, align 1, !tbaa !24
  %16 = load i8, ptr %13, align 1, !tbaa !24
  %17 = icmp ne i8 %16, 0
  %18 = icmp ult i64 %14, %7
  %19 = select i1 %17, i1 %18, i1 false
  br i1 %19, label %.lr.ph, label %.loopexit, !llvm.loop !25

.loopexit:                                        ; preds = %.lr.ph, %.preheader, %6
  %.1 = phi i64 [ %2, %6 ], [ %2, %.preheader ], [ %14, %.lr.ph ]
  %20 = getelementptr inbounds nuw i8, ptr %0, i64 %.1
  store i8 0, ptr %20, align 1, !tbaa !24
  br label %21

21:                                               ; preds = %.loopexit, %4
  %.012 = phi i64 [ %.1, %.loopexit ], [ %2, %4 ]
  ret i64 %.012
}